; Function Attrs: mustprogress nofree norecurse nosync nounwind willreturn memory(argmem: readwrite) uwtable
define hidden void @_ZN30AdaptivePaddedNoZeroDevAverage6sampleEf(ptr nocapture noundef nonnull align 4 dereferenceable(32) %0, float noundef %1) local_unnamed_addr #1 align 2 {
  %3 = getelementptr inbounds i8, ptr %0, i64 4
  %4 = load i32, ptr %3, align 4
  %5 = add i32 %4, 1
  store i32 %5, ptr %3, align 4
  %6 = getelementptr inbounds i8, ptr %0, i64 12
  %7 = load i8, ptr %6, align 4
  %8 = trunc i8 %7 to i1
  %9 = icmp ult i32 %5, 101
  %or.cond.not.i.i = select i1 %8, i1 true, i1 %9
  br i1 %or.cond.not.i.i, label %_ZN23AdaptiveWeightedAverage15increment_countEv.exit.i, label %_ZN23AdaptiveWeightedAverage15increment_countEv.exit.thread.i

_ZN23AdaptiveWeightedAverage15increment_countEv.exit.thread.i: ; preds = %2
  store i8 1, ptr %6, align 4
  %10 = load float, ptr %0, align 4
  br label %_ZN23AdaptiveWeightedAverage6sampleEf.exit

_ZN23AdaptiveWeightedAverage15increment_countEv.exit.i: ; preds = %2
  %11 = load float, ptr %0, align 4
  br i1 %8, label %_ZN23AdaptiveWeightedAverage6sampleEf.exit, label %12

12:                                               ; preds = %_ZN23AdaptiveWeightedAverage15increment_countEv.exit.i
  %13 = udiv i32 100, %5
  br label %_ZN23AdaptiveWeightedAverage6sampleEf.exit

_ZN23AdaptiveWeightedAverage6sampleEf.exit:       ; preds = %_ZN23AdaptiveWeightedAverage15increment_countEv.exit.thread.i, %_ZN23AdaptiveWeightedAverage15increment_countEv.exit.i, %12
  %14 = phi i8 [ %7, %_ZN23AdaptiveWeightedAverage15increment_countEv.exit.i ], [ %7, %12 ], [ 1, %_ZN23AdaptiveWeightedAverage15increment_countEv.exit.thread.i ]
  %15 = phi float [ %11, %_ZN23AdaptiveWeightedAverage15increment_countEv.exit.i ], [ %11, %12 ], [ %10, %_ZN23AdaptiveWeightedAverage15increment_countEv.exit.thread.i ]
  %.0.i.i = phi i32 [ 0, %_ZN23AdaptiveWeightedAverage15increment_countEv.exit.i ], [ %13, %12 ], [ 0, %_ZN23AdaptiveWeightedAverage15increment_countEv.exit.thread.i ]
  %16 = getelementptr inbounds i8, ptr %0, i64 8
  %17 = load i32, ptr %16, align 4
  %18 = tail call noundef i32 @llvm.umax.i32(i32 %17, i32 %.0.i.i)
  %19 = uitofp i32 %18 to float
  %20 = fsub float 1.000000e+02, %19
  %21 = fmul float %15, %20
  %22 = fdiv float %21, 1.000000e+02
  %23 = fmul float %19, %1
  %24 = fdiv float %23, 1.000000e+02
  %25 = fadd float %24, %22
  store float %25, ptr %0, align 4
  %26 = fcmp une float %1, 0.000000e+00
  br i1 %26, label %27, label %_ZN23AdaptiveWeightedAverage6sampleEf.exit._crit_edge

_ZN23AdaptiveWeightedAverage6sampleEf.exit._crit_edge: ; preds = %_ZN23AdaptiveWeightedAverage6sampleEf.exit
  %.phi.trans.insert = getelementptr inbounds i8, ptr %0, i64 24
  %.pre = load float, ptr %.phi.trans.insert, align 4
  br label %46

27:                                               ; preds = %_ZN23AdaptiveWeightedAverage6sampleEf.exit
  %28 = fsub float %1, %25
  %29 = tail call noundef float @llvm.fabs.f32(float %28)
  %30 = getelementptr inbounds i8, ptr %0, i64 24
  %31 = load float, ptr %30, align 4
  %32 = trunc i8 %14 to i1
  br i1 %32, label %_ZN23AdaptiveWeightedAverage24compute_adaptive_averageEff.exit, label %33

33:                                               ; preds = %27
  %34 = udiv i32 100, %5
  br label %_ZN23AdaptiveWeightedAverage24compute_adaptive_averageEff.exit

_ZN23AdaptiveWeightedAverage24compute_adaptive_averageEff.exit: ; preds = %27, %33
  %.0.i = phi i32 [ 0, %27 ], [ %34, %33 ]
  %35 = tail call noundef i32 @llvm.umax.i32(i32 %17, i32 %.0.i)
  %36 = uitofp i32 %35 to float
  %37 = fsub float 1.000000e+02, %36
  %38 = insertelement <2 x float> poison, float %29, i64 0
  %39 = insertelement <2 x float> %38, float %31, i64 1
  %40 = insertelement <2 x float> poison, float %36, i64 0
  %41 = insertelement <2 x float> %40, float %37, i64 1
  %42 = fmul <2 x float> %39, %41
  %43 = fdiv <2 x float> %42, <float 1.000000e+02, float 1.000000e+02>
  %shift = shufflevector <2 x float> %43, <2 x float> poison, <2 x i32> <i32 1, i32 poison>
  %44 = fadd <2 x float> %43, %shift
  %45 = extractelement <2 x float> %44, i64 0
  store float %45, ptr %30, align 4
  br label %46

46:                                               ; preds = %_ZN23AdaptiveWeightedAverage6sampleEf.exit._crit_edge, %_ZN23AdaptiveWeightedAverage24compute_adaptive_averageEff.exit
  %47 = phi float [ %.pre, %_ZN23AdaptiveWeightedAverage6sampleEf.exit._crit_edge ], [ %45, %_ZN23AdaptiveWeightedAverage24compute_adaptive_averageEff.exit ]
  %48 = getelementptr inbounds i8, ptr %0, i64 16
  %49 = getelementptr inbounds i8, ptr %0, i64 28
  %50 = load i32, ptr %49, align 4
  %51 = uitofp i32 %50 to float
  %52 = tail call float @llvm.fmuladd.f32(float %51, float %47, float %25)
  %53 = getelementptr inbounds i8, ptr %0, i64 20
  store float %52, ptr %53, align 4
  store float %1, ptr %48, align 4
  ret void
}